; Function Attrs: mustprogress uwtable
define hidden noundef zeroext i1 @_ZN17pattern_validatorclEjjP4exprjj(ptr noundef nonnull readonly align 4 captures(none) dereferenceable(8) %0, i32 noundef %1, i32 noundef %2, ptr noundef %3, i32 noundef %4, i32 noundef %5) local_unnamed_addr #3 align 2 personality ptr @__gxx_personality_v0 {
  %7 = alloca %class.uint_set, align 8
  call void @llvm.lifetime.start.p0(i64 8, ptr nonnull %7) #20
  store ptr null, ptr %7, align 8, !tbaa !27
  %8 = invoke noundef zeroext i1 @_ZN17pattern_validator7processER8uint_setjjP4exprjj(ptr noundef nonnull align 4 dereferenceable(8) %0, ptr noundef nonnull align 8 dereferenceable(8) %7, i32 noundef %1, i32 noundef %2, ptr noundef %3, i32 noundef %4, i32 noundef %5)
          to label %9 unwind label %10

9:                                                ; preds = %6
  %.pre16 = load ptr, ptr %7, align 8, !tbaa !27
  br i1 %8, label %12, label %24

10:                                               ; preds = %6
  %11 = landingpad { ptr, i32 }
          cleanup
  br label %31

12:                                               ; preds = %9
  %13 = icmp eq ptr %.pre16, null
  br i1 %13, label %_ZNK8uint_set9num_elemsEv.exit, label %.split.i

.split.i:                                         ; preds = %12
  %14 = getelementptr inbounds i8, ptr %.pre16, i64 -4
  %15 = load i32, ptr %14, align 4, !tbaa !29
  %.not.i = icmp eq i32 %15, 0
  br i1 %.not.i, label %_ZNK8uint_set9num_elemsEv.exit, label %_ZNK6vectorIjLb0EjE4sizeEv.exit.preheader.i

_ZNK6vectorIjLb0EjE4sizeEv.exit.preheader.i:      ; preds = %.split.i
  %wide.trip.count.i = zext i32 %15 to i64
  br label %_ZNK6vectorIjLb0EjE4sizeEv.exit.i

_ZNK6vectorIjLb0EjE4sizeEv.exit.i:                ; preds = %_ZNK6vectorIjLb0EjE4sizeEv.exit.i, %_ZNK6vectorIjLb0EjE4sizeEv.exit.preheader.i
  %indvars.iv.i = phi i64 [ 0, %_ZNK6vectorIjLb0EjE4sizeEv.exit.preheader.i ], [ %indvars.iv.next.i, %_ZNK6vectorIjLb0EjE4sizeEv.exit.i ]
  %.058.i = phi i32 [ 0, %_ZNK6vectorIjLb0EjE4sizeEv.exit.preheader.i ], [ %19, %_ZNK6vectorIjLb0EjE4sizeEv.exit.i ]
  %16 = getelementptr inbounds nuw i32, ptr %.pre16, i64 %indvars.iv.i
  %17 = load i32, ptr %16, align 4, !tbaa !29
  %18 = call noundef range(i32 0, 33) i32 @llvm.ctpop.i32(i32 %17)
  %19 = add i32 %18, %.058.i
  %indvars.iv.next.i = add nuw nsw i64 %indvars.iv.i, 1
  %exitcond.not.i = icmp eq i64 %indvars.iv.next.i, %wide.trip.count.i
  br i1 %exitcond.not.i, label %_ZNK8uint_set9num_elemsEv.exit, label %_ZNK6vectorIjLb0EjE4sizeEv.exit.i, !llvm.loop !30

_ZNK8uint_set9num_elemsEv.exit:                   ; preds = %_ZNK6vectorIjLb0EjE4sizeEv.exit.i, %.split.i, %12
  %.us-phi.i = phi i32 [ 0, %12 ], [ 0, %.split.i ], [ %19, %_ZNK6vectorIjLb0EjE4sizeEv.exit.i ]
  %20 = icmp eq i32 %.us-phi.i, %2
  br i1 %20, label %24, label %21

21:                                               ; preds = %_ZNK8uint_set9num_elemsEv.exit
  invoke void (ptr, ...) @_Z11warning_msgPKcz(ptr noundef nonnull @.str.2, i32 noundef %4, i32 noundef %5)
          to label %._crit_edge unwind label %22

._crit_edge:                                      ; preds = %21
  %.pre = load ptr, ptr %7, align 8, !tbaa !27
  br label %24

22:                                               ; preds = %21
  %23 = landingpad { ptr, i32 }
          cleanup
  br label %31

24:                                               ; preds = %._crit_edge, %_ZNK8uint_set9num_elemsEv.exit, %9
  %25 = phi ptr [ %.pre16, %9 ], [ %.pre, %._crit_edge ], [ %.pre16, %_ZNK8uint_set9num_elemsEv.exit ]
  %.0 = phi i1 [ false, %9 ], [ false, %._crit_edge ], [ true, %_ZNK8uint_set9num_elemsEv.exit ]
  %.not.i.i = icmp eq ptr %25, null
  br i1 %.not.i.i, label %_ZN6vectorIjLb0EjED2Ev.exit, label %26

26:                                               ; preds = %24
  %27 = getelementptr inbounds i8, ptr %25, i64 -8
  invoke void @_ZN6memory10deallocateEPv(ptr noundef nonnull %27)
          to label %_ZN6vectorIjLb0EjED2Ev.exit unwind label %28

28:                                               ; preds = %26
  %29 = landingpad { ptr, i32 }
          catch ptr null
  %30 = extractvalue { ptr, i32 } %29, 0
  call void @__clang_call_terminate(ptr %30) #21
  unreachable

_ZN6vectorIjLb0EjED2Ev.exit:                      ; preds = %24, %26
  call void @llvm.lifetime.end.p0(i64 8, ptr nonnull %7) #20
  ret i1 %.0

31:                                               ; preds = %22, %10
  %.pn = phi { ptr, i32 } [ %23, %22 ], [ %11, %10 ]
  call void @_ZN6vectorIjLb0EjED2Ev(ptr noundef nonnull align 8 dereferenceable(8) %7) #20
  call void @llvm.lifetime.end.p0(i64 8, ptr nonnull %7) #20
  resume { ptr, i32 } %.pn
}